target datalayout = "e-m:e-p270:32:32-p271:32:32-p272:64:64-i64:64-i128:128-f80:128-n8:16:32:64-S128"
target triple = "x86_64-pc-linux-gnu"

%struct.rb_shape_tree_t = type { ptr, ptr, i32, ptr, i32 }
%struct.rb_shape = type { ptr, i64, i32, i32, i8, i8, i32, ptr }
%struct.redblack_node = type { i64, ptr, i32, i32 }

@rb_shape_tree_ptr = hidden global ptr null, align 8

; Function Attrs: inlinehint nounwind sspstrong uwtable
define internal ptr @redblack_value(ptr noundef %0) #1 {
  %2 = alloca ptr, align 8
  store ptr %0, ptr %2, align 8, !tbaa !61
  %3 = load ptr, ptr %2, align 8, !tbaa !61
  %4 = getelementptr inbounds nuw %struct.redblack_node, ptr %3, i32 0, i32 1
  %5 = load ptr, ptr %4, align 8, !tbaa !76
  %6 = ptrtoint ptr %5 to i64
  %7 = and i64 %6, -2
  %8 = inttoptr i64 %7 to ptr
  ret ptr %8
}

; Function Attrs: inlinehint nounwind sspstrong uwtable
define internal signext i8 @redblack_color(ptr noundef %0) #1 {
  %2 = alloca ptr, align 8
  store ptr %0, ptr %2, align 8, !tbaa !61
  %3 = load ptr, ptr %2, align 8, !tbaa !61
  %4 = icmp ne ptr %3, null
  br i1 %4, label %5, label %12

5:                                                ; preds = %1
  %6 = load ptr, ptr %2, align 8, !tbaa !61
  %7 = getelementptr inbounds nuw %struct.redblack_node, ptr %6, i32 0, i32 1
  %8 = load ptr, ptr %7, align 8, !tbaa !76
  %9 = ptrtoint ptr %8 to i64
  %10 = and i64 %9, 1
  %11 = icmp ne i64 %10, 0
  br label %12

12:                                               ; preds = %5, %1
  %13 = phi i1 [ false, %1 ], [ %11, %5 ]
  %14 = zext i1 %13 to i32
  %15 = trunc i32 %14 to i8
  ret i8 %15
}

; Function Attrs: inlinehint nounwind sspstrong uwtable
define internal ptr @rb_current_shape_tree() #1 {
  %1 = load ptr, ptr @rb_shape_tree_ptr, align 8, !tbaa !15
  ret ptr %1
}

; Function Attrs: nounwind sspstrong uwtable
define internal ptr @redblack_force_black(ptr noundef %0) #0 {
  %2 = alloca ptr, align 8
  store ptr %0, ptr %2, align 8, !tbaa !61
  %3 = load ptr, ptr %2, align 8, !tbaa !61
  %4 = call ptr @redblack_value(ptr noundef %3)
  %5 = load ptr, ptr %2, align 8, !tbaa !61
  %6 = getelementptr inbounds nuw %struct.redblack_node, ptr %5, i32 0, i32 1
  store ptr %4, ptr %6, align 8, !tbaa !76
  %7 = load ptr, ptr %2, align 8, !tbaa !61
  ret ptr %7
}

; Function Attrs: inlinehint nounwind sspstrong uwtable
define internal zeroext i1 @redblack_red_p(ptr noundef %0) #1 {
  %2 = alloca ptr, align 8
  store ptr %0, ptr %2, align 8, !tbaa !61
  %3 = load ptr, ptr %2, align 8, !tbaa !61
  %4 = call signext i8 @redblack_color(ptr noundef %3)
  %5 = sext i8 %4 to i32
  %6 = icmp eq i32 %5, 1
  ret i1 %6
}

; Function Attrs: nounwind sspstrong uwtable
define hidden ptr @rb_shape_get_shape_by_id(i32 noundef %0) #0 {
  %2 = alloca i32, align 4
  %3 = alloca ptr, align 8
  store i32 %0, ptr %2, align 4, !tbaa !21
  call void @llvm.lifetime.start.p0(i64 8, ptr %3) #14
  %4 = call ptr @rb_current_shape_tree()
  %5 = getelementptr inbounds nuw %struct.rb_shape_tree_t, ptr %4, i32 0, i32 0
  %6 = load ptr, ptr %5, align 8, !tbaa !17
  %7 = load i32, ptr %2, align 4, !tbaa !21
  %8 = zext i32 %7 to i64
  %9 = getelementptr %struct.rb_shape, ptr %6, i64 %8
  store ptr %9, ptr %3, align 8, !tbaa !16
  %10 = load ptr, ptr %3, align 8, !tbaa !16
  call void @llvm.lifetime.end.p0(i64 8, ptr %3) #14
  ret ptr %10
}

; Function Attrs: nounwind sspstrong uwtable
define internal ptr @redblack_insert(ptr noundef %0, i64 noundef %1, ptr noundef %2) #0 {
  %4 = alloca ptr, align 8
  %5 = alloca ptr, align 8
  %6 = alloca i64, align 8
  %7 = alloca ptr, align 8
  %8 = alloca ptr, align 8
  %9 = alloca i32, align 4
  store ptr %0, ptr %5, align 8, !tbaa !61
  store i64 %1, ptr %6, align 8, !tbaa !26
  store ptr %2, ptr %7, align 8, !tbaa !16
  call void @llvm.lifetime.start.p0(i64 8, ptr %8) #14
  %10 = load ptr, ptr %5, align 8, !tbaa !61
  %11 = load i64, ptr %6, align 8, !tbaa !26
  %12 = load ptr, ptr %7, align 8, !tbaa !16
  %13 = call ptr @redblack_insert_aux(ptr noundef %10, i64 noundef %11, ptr noundef %12)
  store ptr %13, ptr %8, align 8, !tbaa !61
  %14 = load ptr, ptr %8, align 8, !tbaa !61
  %15 = call zeroext i1 @redblack_red_p(ptr noundef %14)
  br i1 %15, label %16, label %19

16:                                               ; preds = %3
  %17 = load ptr, ptr %8, align 8, !tbaa !61
  %18 = call ptr @redblack_force_black(ptr noundef %17)
  store ptr %18, ptr %4, align 8
  store i32 1, ptr %9, align 4
  br label %21

19:                                               ; preds = %3
  %20 = load ptr, ptr %8, align 8, !tbaa !61
  store ptr %20, ptr %4, align 8
  store i32 1, ptr %9, align 4
  br label %21

21:                                               ; preds = %19, %16
  call void @llvm.lifetime.end.p0(i64 8, ptr %8) #14
  %22 = load ptr, ptr %4, align 8
  ret ptr %22
}

; Function Attrs: nounwind sspstrong uwtable
define hidden ptr @rb_shape_get_parent(ptr noundef %0) #0 {
  %2 = alloca ptr, align 8
  store ptr %0, ptr %2, align 8, !tbaa !16
  %3 = load ptr, ptr %2, align 8, !tbaa !16
  %4 = getelementptr inbounds nuw %struct.rb_shape, ptr %3, i32 0, i32 6
  %5 = load i32, ptr %4, align 4, !tbaa !22
  %6 = call ptr @rb_shape_get_shape_by_id(i32 noundef %5)
  ret ptr %6
}

; Function Attrs: nounwind sspstrong uwtable
define internal ptr @redblack_cache_ancestors(ptr noundef %0) #0 {
  %2 = alloca ptr, align 8
  %3 = alloca ptr, align 8
  store ptr %0, ptr %2, align 8, !tbaa !16
  %4 = load ptr, ptr %2, align 8, !tbaa !16
  %5 = getelementptr inbounds nuw %struct.rb_shape, ptr %4, i32 0, i32 7
  %6 = load ptr, ptr %5, align 8, !tbaa !58
  %7 = icmp ne ptr %6, null
  br i1 %7, label %37, label %8

8:                                                ; preds = %1
  %9 = load ptr, ptr %2, align 8, !tbaa !16
  %10 = getelementptr inbounds nuw %struct.rb_shape, ptr %9, i32 0, i32 6
  %11 = load i32, ptr %10, align 4, !tbaa !22
  %12 = zext i32 %11 to i64
  %13 = icmp eq i64 %12, 4294967295
  br i1 %13, label %37, label %14

14:                                               ; preds = %8
  call void @llvm.lifetime.start.p0(i64 8, ptr %3) #14
  %15 = load ptr, ptr %2, align 8, !tbaa !16
  %16 = call ptr @rb_shape_get_parent(ptr noundef %15)
  %17 = call ptr @redblack_cache_ancestors(ptr noundef %16)
  store ptr %17, ptr %3, align 8, !tbaa !61
  %18 = load ptr, ptr %2, align 8, !tbaa !16
  %19 = getelementptr inbounds nuw %struct.rb_shape, ptr %18, i32 0, i32 4
  %20 = load i8, ptr %19, align 8, !tbaa !28
  %21 = zext i8 %20 to i32
  %22 = icmp eq i32 %21, 1
  br i1 %22, label %23, label %32

23:                                               ; preds = %14
  %24 = load ptr, ptr %3, align 8, !tbaa !61
  %25 = load ptr, ptr %2, align 8, !tbaa !16
  %26 = getelementptr inbounds nuw %struct.rb_shape, ptr %25, i32 0, i32 1
  %27 = load i64, ptr %26, align 8, !tbaa !43
  %28 = load ptr, ptr %2, align 8, !tbaa !16
  %29 = call ptr @redblack_insert(ptr noundef %24, i64 noundef %27, ptr noundef %28)
  %30 = load ptr, ptr %2, align 8, !tbaa !16
  %31 = getelementptr inbounds nuw %struct.rb_shape, ptr %30, i32 0, i32 7
  store ptr %29, ptr %31, align 8, !tbaa !58
  br label %36

32:                                               ; preds = %14
  %33 = load ptr, ptr %3, align 8, !tbaa !61
  %34 = load ptr, ptr %2, align 8, !tbaa !16
  %35 = getelementptr inbounds nuw %struct.rb_shape, ptr %34, i32 0, i32 7
  store ptr %33, ptr %35, align 8, !tbaa !58
  br label %36

36:                                               ; preds = %32, %23
  call void @llvm.lifetime.end.p0(i64 8, ptr %3) #14
  br label %37

37:                                               ; preds = %36, %8, %1
  %38 = load ptr, ptr %2, align 8, !tbaa !16
  %39 = getelementptr inbounds nuw %struct.rb_shape, ptr %38, i32 0, i32 7
  %40 = load ptr, ptr %39, align 8, !tbaa !58
  ret ptr %40
}