; Function Attrs: nofree nosync nounwind sspstrong memory(readwrite, inaccessiblemem: none) uwtable
define internal fastcc ptr @redblack_cache_ancestors(ptr noundef %0) unnamed_addr #11 {
  %2 = getelementptr inbounds nuw i8, ptr %0, i64 32
  %3 = load ptr, ptr %2, align 8, !tbaa !55
  %.not = icmp eq ptr %3, null
  br i1 %.not, label %4, label %28

4:                                                ; preds = %1
  %5 = getelementptr inbounds nuw i8, ptr %0, i64 28
  %6 = load i32, ptr %5, align 4, !tbaa !20
  %7 = icmp eq i32 %6, -1
  br i1 %7, label %28, label %8

8:                                                ; preds = %4
  %9 = load ptr, ptr @rb_shape_tree_ptr, align 8, !tbaa !7
  %10 = load ptr, ptr %9, align 8, !tbaa !16
  %11 = zext i32 %6 to i64
  %12 = getelementptr %struct.rb_shape, ptr %10, i64 %11
  %13 = tail call fastcc ptr @redblack_cache_ancestors(ptr noundef %12)
  %14 = getelementptr inbounds nuw i8, ptr %0, i64 24
  %15 = load i8, ptr %14, align 8, !tbaa !27
  %16 = icmp eq i8 %15, 1
  br i1 %16, label %17, label %redblack_insert.exit

17:                                               ; preds = %8
  %18 = getelementptr inbounds nuw i8, ptr %0, i64 8
  %19 = load i64, ptr %18, align 8, !tbaa !42
  %20 = tail call fastcc ptr @redblack_insert_aux(ptr noundef %13, i64 noundef %19, ptr noundef nonnull %0)
  %.not.i.i.i = icmp eq ptr %20, null
  br i1 %.not.i.i.i, label %redblack_insert.exit, label %redblack_red_p.exit.i

redblack_red_p.exit.i:                            ; preds = %17
  %21 = getelementptr i8, ptr %20, i64 8
  %22 = load ptr, ptr %21, align 8, !tbaa !61
  %23 = ptrtoint ptr %22 to i64
  %24 = and i64 %23, 1
  %.not.i = icmp eq i64 %24, 0
  br i1 %.not.i, label %redblack_insert.exit, label %25

25:                                               ; preds = %redblack_red_p.exit.i
  %26 = and i64 %23, -2
  %27 = inttoptr i64 %26 to ptr
  store ptr %27, ptr %21, align 8, !tbaa !61
  br label %redblack_insert.exit

redblack_insert.exit:                             ; preds = %25, %redblack_red_p.exit.i, %17, %8
  %storemerge = phi ptr [ %13, %8 ], [ null, %17 ], [ %20, %redblack_red_p.exit.i ], [ %20, %25 ]
  store ptr %storemerge, ptr %2, align 8, !tbaa !55
  br label %28

28:                                               ; preds = %redblack_insert.exit, %4, %1
  %29 = phi ptr [ %storemerge, %redblack_insert.exit ], [ null, %4 ], [ %3, %1 ]
  ret ptr %29
}